target datalayout = "e-m:e-p270:32:32-p271:32:32-p272:64:64-i64:64-i128:128-f80:128-n8:16:32:64-S128"
target triple = "x86_64-unknown-linux-gnu"

%struct.ConnectionKey = type <{ %struct.in_addr, %struct.in_addr, i16, i16, i8 }>
%struct.in_addr = type { i32 }

; Function Attrs: nounwind sspstrong uwtable
define internal i32 @rol32(i32 noundef %word, i32 noundef %shift) #0 {
entry:
  %word.addr = alloca i32, align 4
  %shift.addr = alloca i32, align 4
  store i32 %word, ptr %word.addr, align 4
  store i32 %shift, ptr %shift.addr, align 4
  %0 = load i32, ptr %word.addr, align 4
  %1 = load i32, ptr %shift.addr, align 4
  %and = and i32 %1, 31
  %shl = shl i32 %0, %and
  %2 = load i32, ptr %word.addr, align 4
  %3 = load i32, ptr %shift.addr, align 4
  %sub = sub i32 0, %3
  %and1 = and i32 %sub, 31
  %shr = lshr i32 %2, %and1
  %or = or i32 %shl, %shr
  ret i32 %or
}

; Function Attrs: nounwind sspstrong uwtable
define dso_local i32 @connection_key_hash(ptr noundef %opaque) #0 {
entry:
  %opaque.addr = alloca ptr, align 8
  %key = alloca ptr, align 8
  %a = alloca i32, align 4
  %b = alloca i32, align 4
  %c = alloca i32, align 4
  store ptr %opaque, ptr %opaque.addr, align 8
  %0 = load ptr, ptr %opaque.addr, align 8
  store ptr %0, ptr %key, align 8
  store i32 -559038724, ptr %c, align 4
  store i32 -559038724, ptr %b, align 4
  store i32 -559038724, ptr %a, align 4
  %1 = load ptr, ptr %key, align 8
  %src = getelementptr inbounds %struct.ConnectionKey, ptr %1, i32 0, i32 0
  %s_addr = getelementptr inbounds %struct.in_addr, ptr %src, i32 0, i32 0
  %2 = load i32, ptr %s_addr, align 1
  %3 = load i32, ptr %a, align 4
  %add = add i32 %3, %2
  store i32 %add, ptr %a, align 4
  %4 = load ptr, ptr %key, align 8
  %dst = getelementptr inbounds %struct.ConnectionKey, ptr %4, i32 0, i32 1
  %s_addr1 = getelementptr inbounds %struct.in_addr, ptr %dst, i32 0, i32 0
  %5 = load i32, ptr %s_addr1, align 1
  %6 = load i32, ptr %b, align 4
  %add2 = add i32 %6, %5
  store i32 %add2, ptr %b, align 4
  %7 = load ptr, ptr %key, align 8
  %src_port = getelementptr inbounds %struct.ConnectionKey, ptr %7, i32 0, i32 2
  %8 = load i16, ptr %src_port, align 1
  %conv = zext i16 %8 to i32
  %9 = load ptr, ptr %key, align 8
  %dst_port = getelementptr inbounds %struct.ConnectionKey, ptr %9, i32 0, i32 3
  %10 = load i16, ptr %dst_port, align 1
  %conv3 = zext i16 %10 to i32
  %shl = shl i32 %conv3, 16
  %or = or i32 %conv, %shl
  %11 = load i32, ptr %c, align 4
  %add4 = add i32 %11, %or
  store i32 %add4, ptr %c, align 4
  %12 = load i32, ptr %c, align 4
  %13 = load i32, ptr %a, align 4
  %sub = sub i32 %13, %12
  store i32 %sub, ptr %a, align 4
  %14 = load i32, ptr %c, align 4
  %call = call i32 @rol32(i32 noundef %14, i32 noundef 4)
  %15 = load i32, ptr %a, align 4
  %xor = xor i32 %15, %call
  store i32 %xor, ptr %a, align 4
  %16 = load i32, ptr %b, align 4
  %17 = load i32, ptr %c, align 4
  %add5 = add i32 %17, %16
  store i32 %add5, ptr %c, align 4
  %18 = load i32, ptr %a, align 4
  %19 = load i32, ptr %b, align 4
  %sub6 = sub i32 %19, %18
  store i32 %sub6, ptr %b, align 4
  %20 = load i32, ptr %a, align 4
  %call7 = call i32 @rol32(i32 noundef %20, i32 noundef 6)
  %21 = load i32, ptr %b, align 4
  %xor8 = xor i32 %21, %call7
  store i32 %xor8, ptr %b, align 4
  %22 = load i32, ptr %c, align 4
  %23 = load i32, ptr %a, align 4
  %add9 = add i32 %23, %22
  store i32 %add9, ptr %a, align 4
  %24 = load i32, ptr %b, align 4
  %25 = load i32, ptr %c, align 4
  %sub10 = sub i32 %25, %24
  store i32 %sub10, ptr %c, align 4
  %26 = load i32, ptr %b, align 4
  %call11 = call i32 @rol32(i32 noundef %26, i32 noundef 8)
  %27 = load i32, ptr %c, align 4
  %xor12 = xor i32 %27, %call11
  store i32 %xor12, ptr %c, align 4
  %28 = load i32, ptr %a, align 4
  %29 = load i32, ptr %b, align 4
  %add13 = add i32 %29, %28
  store i32 %add13, ptr %b, align 4
  %30 = load i32, ptr %c, align 4
  %31 = load i32, ptr %a, align 4
  %sub14 = sub i32 %31, %30
  store i32 %sub14, ptr %a, align 4
  %32 = load i32, ptr %c, align 4
  %call15 = call i32 @rol32(i32 noundef %32, i32 noundef 16)
  %33 = load i32, ptr %a, align 4
  %xor16 = xor i32 %33, %call15
  store i32 %xor16, ptr %a, align 4
  %34 = load i32, ptr %b, align 4
  %35 = load i32, ptr %c, align 4
  %add17 = add i32 %35, %34
  store i32 %add17, ptr %c, align 4
  %36 = load i32, ptr %a, align 4
  %37 = load i32, ptr %b, align 4
  %sub18 = sub i32 %37, %36
  store i32 %sub18, ptr %b, align 4
  %38 = load i32, ptr %a, align 4
  %call19 = call i32 @rol32(i32 noundef %38, i32 noundef 19)
  %39 = load i32, ptr %b, align 4
  %xor20 = xor i32 %39, %call19
  store i32 %xor20, ptr %b, align 4
  %40 = load i32, ptr %c, align 4
  %41 = load i32, ptr %a, align 4
  %add21 = add i32 %41, %40
  store i32 %add21, ptr %a, align 4
  %42 = load i32, ptr %b, align 4
  %43 = load i32, ptr %c, align 4
  %sub22 = sub i32 %43, %42
  store i32 %sub22, ptr %c, align 4
  %44 = load i32, ptr %b, align 4
  %call23 = call i32 @rol32(i32 noundef %44, i32 noundef 4)
  %45 = load i32, ptr %c, align 4
  %xor24 = xor i32 %45, %call23
  store i32 %xor24, ptr %c, align 4
  %46 = load i32, ptr %a, align 4
  %47 = load i32, ptr %b, align 4
  %add25 = add i32 %47, %46
  store i32 %add25, ptr %b, align 4
  %48 = load ptr, ptr %key, align 8
  %ip_proto = getelementptr inbounds %struct.ConnectionKey, ptr %48, i32 0, i32 4
  %49 = load i8, ptr %ip_proto, align 1
  %conv26 = zext i8 %49 to i32
  %50 = load i32, ptr %a, align 4
  %add27 = add i32 %50, %conv26
  store i32 %add27, ptr %a, align 4
  %51 = load i32, ptr %b, align 4
  %52 = load i32, ptr %c, align 4
  %xor28 = xor i32 %52, %51
  store i32 %xor28, ptr %c, align 4
  %53 = load i32, ptr %b, align 4
  %call29 = call i32 @rol32(i32 noundef %53, i32 noundef 14)
  %54 = load i32, ptr %c, align 4
  %sub30 = sub i32 %54, %call29
  store i32 %sub30, ptr %c, align 4
  %55 = load i32, ptr %c, align 4
  %56 = load i32, ptr %a, align 4
  %xor31 = xor i32 %56, %55
  store i32 %xor31, ptr %a, align 4
  %57 = load i32, ptr %c, align 4
  %call32 = call i32 @rol32(i32 noundef %57, i32 noundef 11)
  %58 = load i32, ptr %a, align 4
  %sub33 = sub i32 %58, %call32
  store i32 %sub33, ptr %a, align 4
  %59 = load i32, ptr %a, align 4
  %60 = load i32, ptr %b, align 4
  %xor34 = xor i32 %60, %59
  store i32 %xor34, ptr %b, align 4
  %61 = load i32, ptr %a, align 4
  %call35 = call i32 @rol32(i32 noundef %61, i32 noundef 25)
  %62 = load i32, ptr %b, align 4
  %sub36 = sub i32 %62, %call35
  store i32 %sub36, ptr %b, align 4
  %63 = load i32, ptr %b, align 4
  %64 = load i32, ptr %c, align 4
  %xor37 = xor i32 %64, %63
  store i32 %xor37, ptr %c, align 4
  %65 = load i32, ptr %b, align 4
  %call38 = call i32 @rol32(i32 noundef %65, i32 noundef 16)
  %66 = load i32, ptr %c, align 4
  %sub39 = sub i32 %66, %call38
  store i32 %sub39, ptr %c, align 4
  %67 = load i32, ptr %c, align 4
  %68 = load i32, ptr %a, align 4
  %xor40 = xor i32 %68, %67
  store i32 %xor40, ptr %a, align 4
  %69 = load i32, ptr %c, align 4
  %call41 = call i32 @rol32(i32 noundef %69, i32 noundef 4)
  %70 = load i32, ptr %a, align 4
  %sub42 = sub i32 %70, %call41
  store i32 %sub42, ptr %a, align 4
  %71 = load i32, ptr %a, align 4
  %72 = load i32, ptr %b, align 4
  %xor43 = xor i32 %72, %71
  store i32 %xor43, ptr %b, align 4
  %73 = load i32, ptr %a, align 4
  %call44 = call i32 @rol32(i32 noundef %73, i32 noundef 14)
  %74 = load i32, ptr %b, align 4
  %sub45 = sub i32 %74, %call44
  store i32 %sub45, ptr %b, align 4
  %75 = load i32, ptr %b, align 4
  %76 = load i32, ptr %c, align 4
  %xor46 = xor i32 %76, %75
  store i32 %xor46, ptr %c, align 4
  %77 = load i32, ptr %b, align 4
  %call47 = call i32 @rol32(i32 noundef %77, i32 noundef 24)
  %78 = load i32, ptr %c, align 4
  %sub48 = sub i32 %78, %call47
  store i32 %sub48, ptr %c, align 4
  %79 = load i32, ptr %c, align 4
  ret i32 %79
}