; Function Attrs: mustprogress nofree norecurse nosync nounwind sspstrong willreturn memory(argmem: read) uwtable
define dso_local i32 @connection_key_hash(ptr noundef readonly captures(none) %opaque) local_unnamed_addr #0 {
entry:
  %0 = load i32, ptr %opaque, align 1
  %dst = getelementptr inbounds nuw i8, ptr %opaque, i64 4
  %1 = load i32, ptr %dst, align 1
  %add2 = add i32 %1, -559038724
  %src_port = getelementptr inbounds nuw i8, ptr %opaque, i64 8
  %2 = load i16, ptr %src_port, align 1
  %conv = zext i16 %2 to i32
  %dst_port = getelementptr inbounds nuw i8, ptr %opaque, i64 10
  %3 = load i16, ptr %dst_port, align 1
  %conv3 = zext i16 %3 to i32
  %shl = shl nuw i32 %conv3, 16
  %or = or disjoint i32 %shl, %conv
  %add4 = add i32 %or, -559038724
  %sub = sub i32 %0, %or
  %or.i = tail call noundef i32 @llvm.fshl.i32(i32 %add4, i32 %add4, i32 4)
  %xor = xor i32 %or.i, %sub
  %add5 = add i32 %add4, %add2
  %sub6 = sub i32 %add2, %xor
  %or.i71 = tail call noundef i32 @llvm.fshl.i32(i32 %xor, i32 %xor, i32 6)
  %xor8 = xor i32 %sub6, %or.i71
  %add9 = add i32 %xor, %add5
  %sub10 = sub i32 %add5, %xor8
  %or.i72 = tail call noundef i32 @llvm.fshl.i32(i32 %xor8, i32 %xor8, i32 8)
  %xor12 = xor i32 %sub10, %or.i72
  %add13 = add i32 %xor8, %add9
  %sub14 = sub i32 %add9, %xor12
  %or.i73 = tail call noundef i32 @llvm.fshl.i32(i32 %xor12, i32 %xor12, i32 16)
  %xor16 = xor i32 %sub14, %or.i73
  %add17 = add i32 %xor12, %add13
  %sub18 = sub i32 %add13, %xor16
  %or.i74 = tail call noundef i32 @llvm.fshl.i32(i32 %xor16, i32 %xor16, i32 19)
  %xor20 = xor i32 %sub18, %or.i74
  %add21 = add i32 %xor16, %add17
  %sub22 = sub i32 %add17, %xor20
  %or.i75 = tail call noundef i32 @llvm.fshl.i32(i32 %xor20, i32 %xor20, i32 4)
  %xor24 = xor i32 %sub22, %or.i75
  %add25 = add i32 %xor20, %add21
  %ip_proto = getelementptr inbounds nuw i8, ptr %opaque, i64 12
  %4 = load i8, ptr %ip_proto, align 1
  %conv26 = zext i8 %4 to i32
  %add27 = add i32 %add21, %conv26
  %xor28 = xor i32 %xor24, %add25
  %or.i76 = tail call noundef i32 @llvm.fshl.i32(i32 %add25, i32 %add25, i32 14)
  %sub30 = sub i32 %xor28, %or.i76
  %xor31 = xor i32 %sub30, %add27
  %or.i77 = tail call noundef i32 @llvm.fshl.i32(i32 %sub30, i32 %sub30, i32 11)
  %sub33 = sub i32 %xor31, %or.i77
  %xor34 = xor i32 %sub33, %add25
  %or.i78 = tail call noundef i32 @llvm.fshl.i32(i32 %sub33, i32 %sub33, i32 25)
  %sub36 = sub i32 %xor34, %or.i78
  %xor37 = xor i32 %sub36, %sub30
  %or.i79 = tail call noundef i32 @llvm.fshl.i32(i32 %sub36, i32 %sub36, i32 16)
  %sub39 = sub i32 %xor37, %or.i79
  %xor40 = xor i32 %sub39, %sub33
  %or.i80 = tail call noundef i32 @llvm.fshl.i32(i32 %sub39, i32 %sub39, i32 4)
  %sub42 = sub i32 %xor40, %or.i80
  %xor43 = xor i32 %sub42, %sub36
  %or.i81 = tail call noundef i32 @llvm.fshl.i32(i32 %sub42, i32 %sub42, i32 14)
  %sub45 = sub i32 %xor43, %or.i81
  %xor46 = xor i32 %sub45, %sub39
  %or.i82 = tail call noundef i32 @llvm.fshl.i32(i32 %sub45, i32 %sub45, i32 24)
  %sub48 = sub i32 %xor46, %or.i82
  ret i32 %sub48
}